(lp0
I50000
a(dp1
Vset
p2
I198
sVHashMap
p3
I181
sVtext
p4
I117
sV||
p5
I84
sVCollections
p6
I158
sVTest
p7
I121
sV>=
p8
I165
sVxml
p9
I162
sVwrite
p10
I187
sV(
p11
I2
sVObject
p12
I51
sV,
p13
I5
sV0
p14
I16
sVadd
p15
I53
sVgetMessage
p16
I114
sVextends
p17
I65
sV4
p18
I129
sVNbBundle
p19
I115
sVinput
p20
I151
sV<
p21
I19
sV@
p22
I30
sVreturn
p23
I14
sVsynchronized
p24
I194
sVget
p25
I62
sV==
p26
I32
sVassertEquals
p27
I45
sVvoid
p28
I24
sVutil
p29
I40
sVb
p30
I144
sVIOException
p31
I83
sVT
p32
I140
sVnew
p33
I11
sVjruby
p34
I195
sVinstanceof
p35
I95
sVname
p36
I58
sVArrayList
p37
I107
sVlist
p38
I157
sVl
p39
I170
sVClass
p40
I154
sVtry
p41
I75
sVp
p42
I106
sVboolean
p43
I39
sVcommon
p44
I111
sVprintln
p45
I128
sVx
p46
I127
sVevt
p47
I183
sVnode
p48
I108
sVgoogle
p49
I188
sVnetbeans
p50
I38
sVdrools
p51
I197
sVbyte
p52
I109
sVSystem
p53
I100
sVstatic
p54
I28
sVresult
p55
I78
sVgetValue
p56
I161
sVevent
p57
I125
sVappend
p58
I43
sVout
p59
I94
sVindex
p60
I98
sVString
p61
I15
sVfor
p62
I50
sV+
p63
I9
sVlang
p64
I192
sV3
p65
I112
sVr
p66
I119
sVtoString
p67
I91
sVimport
p68
I12
sV;
p69
I4
sVpublic
p70
I10
sV?
p71
I61
sVt
p72
I139
sVcore
p73
I136
sVrun
p74
I185
sVparent
p75
I167
sVstate
p76
I180
sVargs
p77
I150
sVequals
p78
I70
sV&&
p79
I52
sVoffset
p80
I137
sVapache
p81
I66
sVorg
p82
I17
sV[
p83
I21
sVsuper
p84
I87
sVthrow
p85
I85
sVc
p86
I88
sVobj
p87
I159
sVpackage
p88
I72
sV++
p89
I74
sVjunit
p90
I153
sVlength
p91
I55
sVcontext
p92
I89
sVswing
p93
I56
sV{
p94
I6
sVruntime
p95
I105
sVcom
p96
I96
sVthrows
p97
I47
sV+=
p98
I172
sVcontains
p99
I191
sVkey
p100
I120
sVprivate
p101
I26
sVpoi
p102
I177
sVput
p103
I54
sVapi
p104
I81
sVCollection
p105
I142
sVpath
p106
I173
sVcs
p107
I178
sVnext
p108
I152
sV!=
p109
I37
sVjavax
p110
I49
sVRectangle
p111
I164
sVsize
p112
I76
sVNode
p113
I123
sVjava
p114
I29
sVlog
p115
I131
sVsource
p116
I147
sVGroupLayout
p117
I141
sVdata
p118
I156
sV*
p119
I86
sVlong
p120
I102
sV.
p121
I1
sVstart
p122
I186
sV2
p123
I69
sVeditor
p124
I175
sVIRubyObject
p125
I126
sVInteger
p126
I73
sV:
p127
I35
sVtype
p128
I99
sVfinal
p129
I25
sV>
p130
I20
sVa
p131
I184
sVException
p132
I82
sV6
p133
I176
sVGridBagConstraints
p134
I160
sVelse
p135
I42
sVassert
p136
I174
sVcatch
p137
I80
sS'UNK'
p138
I0
sVtrue
p139
I46
sVcase
p140
I68
sV10
p141
I135
sVSet
p142
I138
sVtarget
p143
I190
sVf
p144
I132
sVthis
p145
I31
sVdouble
p146
I130
sVj
p147
I134
sVvalue
p148
I64
sVn
p149
I146
sVproject
p150
I118
sVwhile
p151
I148
sVprotected
p152
I71
sVopenide
p153
I67
sVex
p154
I116
sVfalse
p155
I44
sVfile
p156
I124
sVgetString
p157
I189
sVint
p158
I23
sVgridBagConstraints
p159
I113
sVabstract
p160
I196
sVspi
p161
I145
sVio
p162
I90
sVin
p163
I182
sVOverride
p164
I41
sVnull
p165
I18
sVid
p166
I149
sVif
p167
I13
sV!
p168
I60
sVMap
p169
I101
sVFileObject
p170
I110
sV)
p171
I3
sVLevel
p172
I179
sV-
p173
I36
sVs
p174
I104
sV1
p175
I27
sVinstance
p176
I199
sV5
p177
I155
sV=
p178
I8
sVassertTrue
p179
I103
sVmap
p180
I163
sV""
p181
I122
sVawt
p182
I77
sVList
p183
I63
sVm
p184
I166
sVentry
p185
I169
sV]
p186
I22
sVclass
p187
I33
sVimplements
p188
I133
sVbreak
p189
I92
sVshort
p190
I168
sVe
p191
I59
sVi
p192
I34
sVdoc
p193
I143
sVmodules
p194
I48
sVelement
p195
I193
sVFile
p196
I79
sVy
p197
I171
sVsb
p198
I57
sVmodel
p199
I97
sV}
p200
I7
sVgetName
p201
I93
sa(dp202
I0
g138
sI1
g121
sI2
g11
sI3
g171
sI4
g69
sI5
g13
sI6
g94
sI7
g200
sI8
g178
sI9
g63
sI10
g70
sI11
g33
sI12
g68
sI13
g167
sI14
g23
sI15
g61
sI16
g14
sI17
g82
sI18
g165
sI19
g21
sI20
g130
sI21
g83
sI22
g186
sI23
g158
sI24
g28
sI25
g129
sI26
g101
sI27
g175
sI28
g54
sI29
g114
sI30
g22
sI31
g145
sI32
g26
sI33
g187
sI34
g192
sI35
g127
sI36
g173
sI37
g109
sI38
g50
sI39
g43
sI40
g29
sI41
g164
sI42
g135
sI43
g58
sI44
g155
sI45
g27
sI46
g139
sI47
g97
sI48
g194
sI49
g110
sI50
g62
sI51
g12
sI52
g79
sI53
g15
sI54
g103
sI55
g91
sI56
g93
sI57
g198
sI58
g36
sI59
g191
sI60
g168
sI61
g71
sI62
g25
sI63
g183
sI64
g148
sI65
g17
sI66
g81
sI67
g153
sI68
g140
sI69
g123
sI70
g78
sI71
g152
sI72
g88
sI73
g126
sI74
g89
sI75
g41
sI76
g112
sI77
g182
sI78
g55
sI79
g196
sI80
g137
sI81
g104
sI82
g132
sI83
g31
sI84
g5
sI85
g85
sI86
g119
sI87
g84
sI88
g86
sI89
g92
sI90
g162
sI91
g67
sI92
g189
sI93
g201
sI94
g59
sI95
g35
sI96
g96
sI97
g199
sI98
g60
sI99
g128
sI100
g53
sI101
g169
sI102
g120
sI103
g179
sI104
g174
sI105
g95
sI106
g42
sI107
g37
sI108
g48
sI109
g52
sI110
g170
sI111
g44
sI112
g65
sI113
g159
sI114
g16
sI115
g19
sI116
g154
sI117
g4
sI118
g150
sI119
g66
sI120
g100
sI121
g7
sI122
g181
sI123
g113
sI124
g156
sI125
g57
sI126
g125
sI127
g46
sI128
g45
sI129
g18
sI130
g146
sI131
g115
sI132
g144
sI133
g188
sI134
g147
sI135
g141
sI136
g73
sI137
g80
sI138
g142
sI139
g72
sI140
g32
sI141
g117
sI142
g105
sI143
g193
sI144
g30
sI145
g161
sI146
g149
sI147
g116
sI148
g151
sI149
g166
sI150
g77
sI151
g20
sI152
g108
sI153
g90
sI154
g40
sI155
g177
sI156
g118
sI157
g38
sI158
g6
sI159
g87
sI160
g134
sI161
g56
sI162
g9
sI163
g180
sI164
g111
sI165
g8
sI166
g184
sI167
g75
sI168
g190
sI169
g185
sI170
g39
sI171
g197
sI172
g98
sI173
g106
sI174
g136
sI175
g124
sI176
g133
sI177
g102
sI178
g107
sI179
g172
sI180
g76
sI181
g3
sI182
g163
sI183
g47
sI184
g131
sI185
g74
sI186
g122
sI187
g10
sI188
g49
sI189
g157
sI190
g143
sI191
g99
sI192
g64
sI193
g195
sI194
g24
sI195
g34
sI196
g160
sI197
g51
sI198
g2
sI199
g176
saI200
a.