(lp0
I97129
a(dp1
Vcode
p2
I472
sViterator
p3
I225
sVPropertyChangeListener
p4
I421
sVcatch
p5
I78
sVprefix
p6
I385
sVedu
p7
I433
sVquery
p8
I317
sVchildren
p9
I453
sVrow
p10
I309
sVObject
p11
I52
sVts
p12
I253
sV0
p13
I19
sVfinally
p14
I233
sVgetMessage
p15
I96
sVsuite
p16
I409
sVnodes
p17
I218
sVjunit
p18
I162
sV@
p19
I29
sVassertEquals
p20
I53
sVvoid
p21
I21
sVjpda
p22
I495
sVutil
p23
I38
sVIOException
p24
I73
sV--
p25
I431
sVArrayList
p26
I106
sVlist
p27
I167
sVtry
p28
I76
sVp
p29
I110
sVdelegate
p30
I395
sVprintln
p31
I130
sVevt
p32
I169
sVdir
p33
I299
sVnetbeans
p34
I36
sVgetLogger
p35
I398
sVLong
p36
I351
sVn
p37
I160
sVappend
p38
I49
sVindex
p39
I89
sVPREFERRED_SIZE
p40
I382
sVsun
p41
I224
sV+
p42
I10
sVcurrent
p43
I377
sVversion
p44
I369
sVnew
p45
I12
sVnet
p46
I226
sVmethod
p47
I251
sVdrools
p48
I352
sVsetValue
p49
I417
sVhash
p50
I485
sVSuppressWarnings
p51
I347
sVRuntimeException
p52
I496
sVK
p53
I342
sVcomponent
p54
I260
sVequals
p55
I74
sVlen
p56
I310
sV&&
p57
I55
sVapache
p58
I61
sVpath
p59
I141
sV[
p60
I22
sVDimension
p61
I329
sVthrift
p62
I388
sVtoArray
p63
I452
sVsearch
p64
I319
sVk
p65
I344
sVctx
p66
I390
sVaction
p67
I278
sV{
p68
I6
sVoptions
p69
I240
sVcache
p70
I413
sVdebugger
p71
I289
sVgetText
p72
I281
sVjruby
p73
I349
sVExceptions
p74
I436
sVboolean
p75
I39
sVtools
p76
I339
sVLinkedList
p77
I457
sVNode
p78
I124
sV&
p79
I216
sVGroupLayout
p80
I126
sVcontains
p81
I195
sVnext
p82
I156
sVhandler
p83
I470
sV6
p84
I220
sVmsg
p85
I256
sVtype
p86
I98
sVannotations
p87
I437
sVsetEnabled
p88
I314
sVgetPath
p89
I427
sVGridBagConstraints
p90
I158
sVV
p91
I261
sVexolab
p92
I364
sVjdi
p93
I451
sVerr
p94
I297
sVf
p95
I128
sVthis
p96
I34
sVarray
p97
I356
sVvalues
p98
I210
sVv
p99
I229
sVroot
p100
I212
sVsynchronized
p101
I187
sVlock
p102
I487
sVsubstring
p103
I228
sVspi
p104
I144
sVtag
p105
I492
sV!
p106
I58
sVend
p107
I322
sVsetLocalizedText
p108
I393
sVLevel
p109
I149
sVwrite
p110
I231
sVisEmpty
p111
I214
sVenv
p112
I446
sVconfig
p113
I340
sVassertTrue
p114
I113
sVmap
p115
I201
sVdescription
p116
I460
sVArrays
p117
I209
sVmax
p118
I418
sVList
p119
I62
sVDEFAULT_SIZE
p120
I396
sVModel
p121
I448
sVdata
p122
I154
sVresponse
p123
I376
sVtypes
p124
I346
sVfo
p125
I200
sVa
p126
I161
sVshort
p127
I268
sVaddAll
p128
I432
sVgridBagConstraints
p129
I111
sVelement
p130
I194
sVswitch
p131
I296
sVAlignment
p132
I341
sVFile
p133
I70
sVsb
p134
I82
sVprefPadding
p135
I366
sVUnsupportedOperationException
p136
I386
sVentity
p137
I486
sV1
p138
I30
sV20
p139
I443
sV,
p140
I5
sVIllegalStateException
p141
I447
sV<
p142
I18
sVRunnable
p143
I263
sVreturn
p144
I14
sVURL
p145
I252
sVbreak
p146
I92
sVframework
p147
I456
sVJButton
p148
I336
sVasList
p149
I337
sVinstanceof
p150
I97
sVexecute
p151
I345
sVname
p152
I57
sVIterator
p153
I234
sVUtils
p154
I423
sVl
p155
I157
sVtoken
p156
I188
sV|
p157
I444
sVstatic
p158
I28
sVex
p159
I101
sVType
p160
I247
sVevent
p161
I118
sVout
p162
I100
sVitem
p163
I221
sVres
p164
I243
sVreq
p165
I482
sVfactory
p166
I442
sVret
p167
I363
sVhashCode
p168
I354
sVcontent
p169
I434
sV7
p170
I415
sVreader
p171
I333
sVref
p172
I459
sVClass
p173
I166
sVargs
p174
I174
sVbase
p175
I424
sVThrowable
p176
I414
sVput
p177
I68
sVorg
p178
I16
sVbyte
p179
I125
sVlogging
p180
I307
sVg
p181
I203
sV++
p182
I64
sVlexer
p183
I477
sVfilter
p184
I392
sVlength
p185
I54
sVelasticsearch
p186
I138
sVw
p187
I313
sVswing
p188
I50
sVview
p189
I484
sVthrows
p190
I44
sV+=
p191
I172
sV>=
p192
I183
sVvalueOf
p193
I353
sVChangeListener
p194
I499
sVmegamek
p195
I463
sVlong
p196
I102
sVsetAccessibleDescription
p197
I483
sVmessage
p198
I236
sVsize
p199
I81
sVproperties
p200
I494
sVstart
p201
I186
sVBundle
p202
I361
sVannotation
p203
I402
sVInsets
p204
I370
sV2
p205
I79
sVparams
p206
I273
sVfinal
p207
I26
sVException
p208
I72
sVcreateParallelGroup
p209
I387
sVfilesystems
p210
I269
sS'UNK'
p211
I0
sV11
p212
I362
sV10
p213
I159
sVkind
p214
I440
sVb
p215
I151
sVtarget
p216
I192
sV"\u005cn"
p217
I350
sVdouble
p218
I136
sVIllegalArgumentException
p219
I275
sVtree
p220
I227
sVproject
p221
I114
sVr
p222
I134
sVstr
p223
I325
sVfalse
p224
I43
sVgetString
p225
I222
sVant
p226
I458
sVprintStackTrace
p227
I330
sVnull
p228
I17
sVcassandra
p229
I473
sVFileObject
p230
I108
sVcastor
p231
I277
sVlib
p232
I357
sV-
p233
I41
sVgetId
p234
I426
sVinstance
p235
I211
sVlabel
p236
I468
sV=
p237
I8
sVMnemonics
p238
I371
sVbuf
p239
I255
sVobject
p240
I328
sVinsets
p241
I411
sVaddGroup
p242
I335
sVposition
p243
I461
sV]
p244
I23
sVclass
p245
I32
sVurl
p246
I276
sVdoc
p247
I116
sVsetText
p248
I287
sVrequest
p249
I274
sVBoolean
p250
I205
sVActionEvent
p251
I258
sVVCSFileProxy
p252
I327
sV}
p253
I7
sVHashMap
p254
I190
sVtext
p255
I119
sVrandom
p256
I380
sVTest
p257
I120
sVDocument
p258
I304
sVMath
p259
I288
sVxml
p260
I142
sVassertThat
p261
I176
sVlayout
p262
I206
sV(
p263
I2
sVwriter
p264
I285
sVstate
p265
I182
sVUtil
p266
I422
sV8
p267
I323
sVfolder
p268
I498
sVassertNotNull
p269
I248
sVinfo
p270
I153
sVget
p271
I59
sV==
p272
I33
sVMAX_VALUE
p273
I355
sVlistener
p274
I246
sVSet
p275
I133
sV;
p276
I4
sVsettings
p277
I306
sVh
p278
I404
sVbytes
p279
I401
sVremove
p280
I207
sVpublic
p281
I9
sVcommon
p282
I115
sVx
p283
I127
sVJTextField
p284
I469
sVset
p285
I215
sVgetClass
p286
I250
sVexists
p287
I381
sVShort
p288
I471
sVresult
p289
I77
sVfail
p290
I305
sVclose
p291
I171
sVlucene
p292
I147
sVgetName
p293
I93
sVUtilities
p294
I408
sVDataObject
p295
I405
sVisSelected
p296
I435
sV3
p297
I121
sVprotected
p298
I63
sVtoString
p299
I87
sVprops
p300
I391
sVimport
p301
I11
sVFileUtil
p302
I223
sVKind
p303
I491
sVparent
p304
I168
sVcomp
p305
I450
sVLookup
p306
I300
sVVector
p307
I389
sVkey
p308
I123
sVinterface
p309
I348
sVgroup
p310
I464
sVsolr
p311
I406
sVc
p312
I91
sVgetKey
p313
I449
sVs
p314
I107
sVcontext
p315
I103
sVcom
p316
I109
sVch
p317
I358
sVActionListener
p318
I397
sVpos
p319
I239
sVheight
p320
I316
sVpoi
p321
I318
sVcs
p322
I295
sVtable
p323
I302
sV100
p324
I445
sVRectangle
p325
I238
sVammo
p326
I474
sVjava
p327
I27
sVaddActionListener
p328
I497
sVcreate
p329
I202
sVJPanel
p330
I282
sV.
p331
I1
sVStringBuffer
p332
I365
sVexpected
p333
I280
sV>
p334
I20
sVcharAt
p335
I373
sVStringBuilder
p336
I230
sVgetType
p337
I271
sVj2ee
p338
I291
sVelse
p339
I42
sVassert
p340
I164
sVchild
p341
I375
sVAction
p342
I324
sVcase
p343
I69
sVField
p344
I475
sVvalue
p345
I71
sVgetValue
p346
I175
sVclassName
p347
I343
sVwhile
p348
I137
sVerror
p349
I416
sVanchor
p350
I493
sVLOG
p351
I232
sVis
p352
I383
sV<=
p353
I264
sVit
p354
I294
sVparse
p355
I379
sVWizardDescriptor
p356
I480
sVio
p357
I88
sVin
p358
I181
sVOverride
p359
I40
sVLogger
p360
I199
sVid
p361
I139
sVif
p362
I13
sV)
p363
I3
sVequalTo
p364
I265
sV9
p365
I490
sVdocument
p366
I410
sVNonNull
p367
I476
sV""
p368
I117
sVLEADING
p369
I454
sVphp
p370
I466
sVimplements
p371
I129
sVtask
p372
I455
sVi
p373
I31
sVbuilder
p374
I189
sVclient
p375
I177
sVcommand
p376
I360
sVy
p377
I165
sVentry
p378
I180
sVmodel
p379
I95
sVgetAccessibleContext
p380
I338
sVComponent
p381
I334
sV||
p382
I85
sVactions
p383
I359
sVCollections
p384
I155
sVweb
p385
I481
sVgetInstance
p386
I286
sVsource
p387
I135
sVadd
p388
I51
sVIRubyObject
p389
I204
sVextends
p390
I65
sV4
p391
I145
sVNbBundle
p392
I94
sVinput
p393
I185
sVlogger
p394
I257
sVThread
p395
I374
sVformat
p396
I301
sVread
p397
I420
sVMessages
p398
I479
sVProject
p399
I249
sVToken
p400
I245
sVT
p401
I150
sV"test"
p402
I428
sVdesc
p403
I394
sVd
p404
I213
sVprivate
p405
I25
sVapi
p406
I80
sVt
p407
I132
sVoutput
p408
I430
sVtapestry5
p409
I399
sVgoogle
p410
I312
sVSystem
p411
I104
sVgetKind
p412
I489
sVJLabel
p413
I197
sV5
p414
I163
sVFINE
p415
I478
sVstartsWith
p416
I367
sVString
p417
I15
sVfor
p418
I48
sV/
p419
I237
sVMethod
p420
I467
sVbuffer
p421
I266
sVcnd
p422
I219
sVcontinue
p423
I284
sVDouble
p424
I372
sV?
p425
I66
sVcore
p426
I146
sVawt
p427
I75
sVrun
p428
I170
sVrepository
p429
I331
sVHashSet
p430
I254
sVindexOf
p431
I311
sVoffset
p432
I143
sVsuper
p433
I84
sVthrow
p434
I83
sVpanel
p435
I270
sVsrc
p436
I462
sVobj
p437
I178
sVidx
p438
I303
sVpackage
p439
I67
sVlocation
p440
I438
sVo
p441
I196
sV" "
p442
I439
sVbeans
p443
I321
sVcommit
p444
I465
sVruntime
p445
I152
sVhasNext
p446
I308
sVaddComponent
p447
I179
sVfloat
p448
I298
sVInputStream
p449
I419
sV!=
p450
I37
sVjavax
p451
I47
sVlog
p452
I122
sVval
p453
I332
sVsupport
p454
I262
sV*
p455
I90
sVCollection
p456
I148
sVclazz
p457
I326
sVwidth
p458
I292
sVeditor
p459
I173
sVInteger
p460
I86
sV:
p461
I35
sVfiles
p462
I320
sVgetDefault
p463
I193
sVline
p464
I242
sVtrue
p465
I45
sVcount
p466
I267
sVgetProperty
p467
I272
sVdefault
p468
I400
sVj
p469
I131
sVbounds
p470
I425
sVAssert
p471
I403
sVui
p472
I208
sVopenide
p473
I60
sVclear
p474
I384
sVimpl
p475
I290
sVtrim
p476
I441
sVJComponent
p477
I412
sVint
p478
I24
sVm
p479
I191
sVabstract
p480
I198
sVparser
p481
I279
sVchar
p482
I244
sVfile
p483
I112
sVutils
p484
I488
sVMap
p485
I99
sVfield
p486
I184
sVother
p487
I283
sVlookup
p488
I235
sVtest
p489
I293
sVnode
p490
I105
sVE
p491
I407
sVactionPerformed
p492
I368
sVElement
p493
I217
sVconcurrent
p494
I429
sVEntry
p495
I315
sVlang
p496
I140
sVe
p497
I56
sVColor
p498
I241
sVmodules
p499
I46
sVassertFalse
p500
I259
sV12
p501
I378
sa(dp502
I0
g211
sI1
g331
sI2
g263
sI3
g363
sI4
g276
sI5
g140
sI6
g68
sI7
g253
sI8
g237
sI9
g281
sI10
g42
sI11
g301
sI12
g45
sI13
g362
sI14
g144
sI15
g417
sI16
g178
sI17
g228
sI18
g142
sI19
g13
sI20
g334
sI21
g21
sI22
g60
sI23
g244
sI24
g478
sI25
g405
sI26
g207
sI27
g327
sI28
g158
sI29
g19
sI30
g138
sI31
g373
sI32
g245
sI33
g272
sI34
g96
sI35
g461
sI36
g34
sI37
g450
sI38
g23
sI39
g75
sI40
g359
sI41
g233
sI42
g339
sI43
g224
sI44
g190
sI45
g465
sI46
g499
sI47
g451
sI48
g418
sI49
g38
sI50
g188
sI51
g388
sI52
g11
sI53
g20
sI54
g185
sI55
g57
sI56
g497
sI57
g152
sI58
g106
sI59
g271
sI60
g473
sI61
g58
sI62
g119
sI63
g298
sI64
g182
sI65
g390
sI66
g425
sI67
g439
sI68
g177
sI69
g343
sI70
g133
sI71
g345
sI72
g208
sI73
g24
sI74
g55
sI75
g427
sI76
g28
sI77
g289
sI78
g5
sI79
g205
sI80
g406
sI81
g199
sI82
g134
sI83
g434
sI84
g433
sI85
g382
sI86
g460
sI87
g299
sI88
g357
sI89
g39
sI90
g455
sI91
g312
sI92
g146
sI93
g293
sI94
g392
sI95
g379
sI96
g15
sI97
g150
sI98
g86
sI99
g485
sI100
g162
sI101
g159
sI102
g196
sI103
g315
sI104
g411
sI105
g490
sI106
g26
sI107
g314
sI108
g230
sI109
g316
sI110
g29
sI111
g129
sI112
g483
sI113
g114
sI114
g221
sI115
g282
sI116
g247
sI117
g368
sI118
g161
sI119
g255
sI120
g257
sI121
g297
sI122
g452
sI123
g308
sI124
g78
sI125
g179
sI126
g80
sI127
g283
sI128
g95
sI129
g371
sI130
g31
sI131
g469
sI132
g407
sI133
g275
sI134
g222
sI135
g387
sI136
g218
sI137
g348
sI138
g186
sI139
g361
sI140
g496
sI141
g59
sI142
g260
sI143
g432
sI144
g104
sI145
g391
sI146
g426
sI147
g292
sI148
g456
sI149
g109
sI150
g401
sI151
g215
sI152
g445
sI153
g270
sI154
g122
sI155
g384
sI156
g82
sI157
g155
sI158
g90
sI159
g213
sI160
g37
sI161
g126
sI162
g18
sI163
g414
sI164
g340
sI165
g377
sI166
g173
sI167
g27
sI168
g304
sI169
g32
sI170
g428
sI171
g291
sI172
g191
sI173
g459
sI174
g174
sI175
g346
sI176
g261
sI177
g375
sI178
g437
sI179
g447
sI180
g378
sI181
g358
sI182
g265
sI183
g192
sI184
g486
sI185
g393
sI186
g201
sI187
g101
sI188
g156
sI189
g374
sI190
g254
sI191
g479
sI192
g216
sI193
g463
sI194
g130
sI195
g81
sI196
g441
sI197
g413
sI198
g480
sI199
g360
sI200
g125
sI201
g115
sI202
g329
sI203
g181
sI204
g389
sI205
g250
sI206
g262
sI207
g280
sI208
g472
sI209
g117
sI210
g98
sI211
g235
sI212
g100
sI213
g404
sI214
g111
sI215
g285
sI216
g79
sI217
g493
sI218
g17
sI219
g422
sI220
g84
sI221
g163
sI222
g225
sI223
g302
sI224
g41
sI225
g3
sI226
g46
sI227
g220
sI228
g103
sI229
g99
sI230
g336
sI231
g110
sI232
g351
sI233
g14
sI234
g153
sI235
g488
sI236
g198
sI237
g419
sI238
g325
sI239
g319
sI240
g69
sI241
g498
sI242
g464
sI243
g164
sI244
g482
sI245
g400
sI246
g274
sI247
g160
sI248
g269
sI249
g399
sI250
g286
sI251
g47
sI252
g145
sI253
g12
sI254
g430
sI255
g239
sI256
g85
sI257
g394
sI258
g251
sI259
g500
sI260
g54
sI261
g91
sI262
g454
sI263
g143
sI264
g353
sI265
g364
sI266
g421
sI267
g466
sI268
g127
sI269
g210
sI270
g435
sI271
g337
sI272
g467
sI273
g206
sI274
g249
sI275
g219
sI276
g246
sI277
g231
sI278
g67
sI279
g481
sI280
g333
sI281
g72
sI282
g330
sI283
g487
sI284
g423
sI285
g264
sI286
g386
sI287
g248
sI288
g259
sI289
g71
sI290
g475
sI291
g338
sI292
g458
sI293
g489
sI294
g354
sI295
g322
sI296
g131
sI297
g94
sI298
g448
sI299
g33
sI300
g306
sI301
g396
sI302
g323
sI303
g438
sI304
g258
sI305
g290
sI306
g277
sI307
g180
sI308
g446
sI309
g10
sI310
g56
sI311
g431
sI312
g410
sI313
g187
sI314
g88
sI315
g495
sI316
g320
sI317
g8
sI318
g321
sI319
g64
sI320
g462
sI321
g443
sI322
g107
sI323
g267
sI324
g342
sI325
g223
sI326
g457
sI327
g252
sI328
g240
sI329
g61
sI330
g227
sI331
g429
sI332
g453
sI333
g171
sI334
g381
sI335
g242
sI336
g148
sI337
g149
sI338
g380
sI339
g76
sI340
g113
sI341
g132
sI342
g53
sI343
g347
sI344
g65
sI345
g151
sI346
g124
sI347
g51
sI348
g309
sI349
g73
sI350
V"\u005cn"
p503
sI351
g36
sI352
g48
sI353
g193
sI354
g168
sI355
g273
sI356
g97
sI357
g232
sI358
g317
sI359
g383
sI360
g376
sI361
g202
sI362
g212
sI363
g167
sI364
g92
sI365
g332
sI366
g135
sI367
g416
sI368
g492
sI369
g44
sI370
g204
sI371
g238
sI372
g424
sI373
g335
sI374
g395
sI375
g341
sI376
g123
sI377
g43
sI378
g501
sI379
g355
sI380
g256
sI381
g287
sI382
g40
sI383
g352
sI384
g474
sI385
g6
sI386
g136
sI387
g209
sI388
g62
sI389
g307
sI390
g66
sI391
g300
sI392
g184
sI393
g108
sI394
g403
sI395
g30
sI396
g120
sI397
g318
sI398
g35
sI399
g409
sI400
g468
sI401
g279
sI402
g203
sI403
g471
sI404
g278
sI405
g295
sI406
g311
sI407
g491
sI408
g294
sI409
g16
sI410
g366
sI411
g241
sI412
g477
sI413
g70
sI414
g176
sI415
g170
sI416
g349
sI417
g49
sI418
g118
sI419
g449
sI420
g397
sI421
g4
sI422
g266
sI423
g154
sI424
g175
sI425
g470
sI426
g234
sI427
g89
sI428
g402
sI429
g494
sI430
g408
sI431
g25
sI432
g128
sI433
g7
sI434
g169
sI435
g296
sI436
g74
sI437
g87
sI438
g440
sI439
g442
sI440
g214
sI441
g476
sI442
g166
sI443
g139
sI444
g157
sI445
g324
sI446
g112
sI447
g141
sI448
g121
sI449
g313
sI450
g305
sI451
g93
sI452
g63
sI453
g9
sI454
g369
sI455
g372
sI456
g147
sI457
g77
sI458
g226
sI459
g172
sI460
g116
sI461
g243
sI462
g436
sI463
g195
sI464
g310
sI465
g444
sI466
g370
sI467
g420
sI468
g236
sI469
g284
sI470
g83
sI471
g288
sI472
g2
sI473
g229
sI474
g326
sI475
g344
sI476
g367
sI477
g183
sI478
g415
sI479
g398
sI480
g356
sI481
g385
sI482
g165
sI483
g197
sI484
g189
sI485
g50
sI486
g137
sI487
g102
sI488
g484
sI489
g412
sI490
g365
sI491
g303
sI492
g105
sI493
g350
sI494
g200
sI495
g22
sI496
g52
sI497
g328
sI498
g268
sI499
g194
saI500
a.